target datalayout = "e-m:e-p270:32:32-p271:32:32-p272:64:64-i64:64-i128:128-f80:128-n8:16:32:64-S128"
target triple = "x86_64-pc-linux-gnu"

%struct.Scheduler = type { ptr, ptr, i32, ptr, i32, i32, %union.pthread_mutex_t, i32, i32, %union.pthread_mutex_t, %union.pthread_cond_t, ptr, i32, ptr, i32, ptr, i32, ptr, i32, ptr, i32, i32, i32, %union.pthread_mutex_t, i64 }
%union.pthread_cond_t = type { %struct.__pthread_cond_s }
%struct.__pthread_cond_s = type { %union.__atomic_wide_counter, %union.__atomic_wide_counter, [2 x i32], [2 x i32], i32, i32, [2 x i32] }
%union.__atomic_wide_counter = type { i64 }
%union.pthread_mutex_t = type { %struct.__pthread_mutex_s }
%struct.__pthread_mutex_s = type { i32, i32, i32, i32, i32, i16, i16, %struct.__pthread_internal_list }
%struct.__pthread_internal_list = type { ptr, ptr }
%struct.SchTask = type { ptr, %struct.SchedulerNode, ptr, ptr, i64, i32 }
%struct.SchedulerNode = type { i32, i32, i32 }
%struct.SchMux = type { ptr, ptr, i32, i32, ptr, %struct.SchTask, i32, ptr, i32, ptr }

@.str.45 = private unnamed_addr constant [24 x i8] c"Error writing the SDP.\0A\00", align 1

; Function Attrs: nounwind uwtable
define internal i32 @mux_init(ptr noundef %0, ptr noundef %1) #0 {
  %3 = alloca i32, align 4
  %4 = alloca ptr, align 8
  %5 = alloca ptr, align 8
  %6 = alloca i32, align 4
  %7 = alloca i32, align 4
  %8 = alloca i32, align 4
  store ptr %0, ptr %4, align 8, !tbaa !10
  store ptr %1, ptr %5, align 8, !tbaa !41
  call void @llvm.lifetime.start.p0(i64 4, ptr %6) #9
  %9 = load ptr, ptr %5, align 8, !tbaa !41
  %10 = getelementptr inbounds nuw %struct.SchMux, ptr %9, i32 0, i32 4
  %11 = load ptr, ptr %10, align 8, !tbaa !99
  %12 = load ptr, ptr %5, align 8, !tbaa !41
  %13 = getelementptr inbounds nuw %struct.SchMux, ptr %12, i32 0, i32 5
  %14 = getelementptr inbounds nuw %struct.SchTask, ptr %13, i32 0, i32 3
  %15 = load ptr, ptr %14, align 8, !tbaa !160
  %16 = call i32 %11(ptr noundef %15)
  store i32 %16, ptr %6, align 4, !tbaa !12
  %17 = load i32, ptr %6, align 4, !tbaa !12
  %18 = icmp slt i32 %17, 0
  br i1 %18, label %19, label %21

19:                                               ; preds = %2
  %20 = load i32, ptr %6, align 4, !tbaa !12
  store i32 %20, ptr %3, align 4
  store i32 1, ptr %7, align 4
  br label %90

21:                                               ; preds = %2
  %22 = load ptr, ptr %4, align 8, !tbaa !10
  %23 = getelementptr inbounds nuw %struct.Scheduler, ptr %22, i32 0, i32 5
  %24 = load i32, ptr %23, align 4, !tbaa !161
  %25 = add i32 %24, 1
  store i32 %25, ptr %23, align 4, !tbaa !161
  %26 = load ptr, ptr %4, align 8, !tbaa !10
  %27 = getelementptr inbounds nuw %struct.Scheduler, ptr %26, i32 0, i32 19
  %28 = load ptr, ptr %27, align 8, !tbaa !96
  %29 = icmp ne ptr %28, null
  br i1 %29, label %35, label %30

30:                                               ; preds = %21
  %31 = load ptr, ptr %4, align 8, !tbaa !10
  %32 = getelementptr inbounds nuw %struct.Scheduler, ptr %31, i32 0, i32 20
  %33 = load i32, ptr %32, align 8, !tbaa !94
  %34 = icmp ne i32 %33, 0
  br i1 %34, label %35, label %81

35:                                               ; preds = %30, %21
  %36 = load ptr, ptr %4, align 8, !tbaa !10
  %37 = getelementptr inbounds nuw %struct.Scheduler, ptr %36, i32 0, i32 5
  %38 = load i32, ptr %37, align 4, !tbaa !161
  %39 = load ptr, ptr %4, align 8, !tbaa !10
  %40 = getelementptr inbounds nuw %struct.Scheduler, ptr %39, i32 0, i32 4
  %41 = load i32, ptr %40, align 8, !tbaa !39
  %42 = icmp ult i32 %38, %41
  br i1 %42, label %43, label %44

43:                                               ; preds = %35
  store i32 0, ptr %3, align 4
  store i32 1, ptr %7, align 4
  br label %90

44:                                               ; preds = %35
  %45 = load ptr, ptr %4, align 8, !tbaa !10
  %46 = getelementptr inbounds nuw %struct.Scheduler, ptr %45, i32 0, i32 19
  %47 = load ptr, ptr %46, align 8, !tbaa !96
  %48 = call i32 @print_sdp(ptr noundef %47)
  store i32 %48, ptr %6, align 4, !tbaa !12
  %49 = load i32, ptr %6, align 4, !tbaa !12
  %50 = icmp slt i32 %49, 0
  br i1 %50, label %51, label %54

51:                                               ; preds = %44
  %52 = load ptr, ptr %4, align 8, !tbaa !10
  call void (ptr, i32, ptr, ...) @av_log(ptr noundef %52, i32 noundef 16, ptr noundef @.str.45)
  %53 = load i32, ptr %6, align 4, !tbaa !12
  store i32 %53, ptr %3, align 4
  store i32 1, ptr %7, align 4
  br label %90

54:                                               ; preds = %44
  call void @llvm.lifetime.start.p0(i64 4, ptr %8) #9
  store i32 0, ptr %8, align 4, !tbaa !12
  br label %55

55:                                               ; preds = %75, %54
  %56 = load i32, ptr %8, align 4, !tbaa !12
  %57 = load ptr, ptr %4, align 8, !tbaa !10
  %58 = getelementptr inbounds nuw %struct.Scheduler, ptr %57, i32 0, i32 4
  %59 = load i32, ptr %58, align 8, !tbaa !39
  %60 = icmp ult i32 %56, %59
  br i1 %60, label %62, label %61

61:                                               ; preds = %55
  store i32 2, ptr %7, align 4
  br label %78

62:                                               ; preds = %55
  %63 = load ptr, ptr %4, align 8, !tbaa !10
  %64 = getelementptr inbounds nuw %struct.Scheduler, ptr %63, i32 0, i32 3
  %65 = load ptr, ptr %64, align 8, !tbaa !40
  %66 = load i32, ptr %8, align 4, !tbaa !12
  %67 = zext i32 %66 to i64
  %68 = getelementptr inbounds nuw %struct.SchMux, ptr %65, i64 %67
  %69 = call i32 @mux_task_start(ptr noundef %68)
  store i32 %69, ptr %6, align 4, !tbaa !12
  %70 = load i32, ptr %6, align 4, !tbaa !12
  %71 = icmp slt i32 %70, 0
  br i1 %71, label %72, label %74

72:                                               ; preds = %62
  %73 = load i32, ptr %6, align 4, !tbaa !12
  store i32 %73, ptr %3, align 4
  store i32 1, ptr %7, align 4
  br label %78

74:                                               ; preds = %62
  br label %75

75:                                               ; preds = %74
  %76 = load i32, ptr %8, align 4, !tbaa !12
  %77 = add i32 %76, 1
  store i32 %77, ptr %8, align 4, !tbaa !12
  br label %55, !llvm.loop !162

78:                                               ; preds = %72, %61
  call void @llvm.lifetime.end.p0(i64 4, ptr %8) #9
  %79 = load i32, ptr %7, align 4
  switch i32 %79, label %90 [
    i32 2, label %80
  ]

80:                                               ; preds = %78
  br label %89

81:                                               ; preds = %30
  %82 = load ptr, ptr %5, align 8, !tbaa !41
  %83 = call i32 @mux_task_start(ptr noundef %82)
  store i32 %83, ptr %6, align 4, !tbaa !12
  %84 = load i32, ptr %6, align 4, !tbaa !12
  %85 = icmp slt i32 %84, 0
  br i1 %85, label %86, label %88

86:                                               ; preds = %81
  %87 = load i32, ptr %6, align 4, !tbaa !12
  store i32 %87, ptr %3, align 4
  store i32 1, ptr %7, align 4
  br label %90

88:                                               ; preds = %81
  br label %89

89:                                               ; preds = %88, %80
  store i32 0, ptr %3, align 4
  store i32 1, ptr %7, align 4
  br label %90

90:                                               ; preds = %89, %86, %78, %51, %43, %19
  call void @llvm.lifetime.end.p0(i64 4, ptr %6) #9
  %91 = load i32, ptr %3, align 4
  ret i32 %91
}