; Function Attrs: nounwind uwtable
define internal fastcc range(i32 -2147483648, 1) i32 @mux_init(ptr noundef %0, ptr noundef %1) unnamed_addr #0 {
  %3 = getelementptr inbounds nuw i8, ptr %1, i64 24
  %4 = load ptr, ptr %3, align 8, !tbaa !87
  %5 = getelementptr inbounds nuw i8, ptr %1, i64 64
  %6 = load ptr, ptr %5, align 8, !tbaa !137
  %7 = tail call i32 %4(ptr noundef %6) #9
  %8 = icmp slt i32 %7, 0
  br i1 %8, label %.thread, label %9

9:                                                ; preds = %2
  %10 = getelementptr inbounds nuw i8, ptr %0, i64 36
  %11 = load i32, ptr %10, align 4, !tbaa !138
  %12 = add i32 %11, 1
  store i32 %12, ptr %10, align 4, !tbaa !138
  %13 = getelementptr inbounds nuw i8, ptr %0, i64 240
  %14 = load ptr, ptr %13, align 8, !tbaa !85
  %.not = icmp eq ptr %14, null
  br i1 %.not, label %15, label %18

15:                                               ; preds = %9
  %16 = getelementptr inbounds nuw i8, ptr %0, i64 248
  %17 = load i32, ptr %16, align 8, !tbaa !84
  %.not30 = icmp eq i32 %17, 0
  br i1 %.not30, label %36, label %18

18:                                               ; preds = %15, %9
  %19 = getelementptr inbounds nuw i8, ptr %0, i64 32
  %20 = load i32, ptr %19, align 8, !tbaa !20
  %21 = icmp ult i32 %12, %20
  br i1 %21, label %.thread, label %22

22:                                               ; preds = %18
  %23 = tail call i32 @print_sdp(ptr noundef %14) #9
  %24 = icmp slt i32 %23, 0
  br i1 %24, label %27, label %.preheader

.preheader:                                       ; preds = %22
  %25 = load i32, ptr %19, align 8, !tbaa !20
  %.not3133.not = icmp eq i32 %25, 0
  br i1 %.not3133.not, label %.loopexit, label %.lr.ph

.lr.ph:                                           ; preds = %.preheader
  %26 = getelementptr inbounds nuw i8, ptr %0, i64 24
  br label %31

27:                                               ; preds = %22
  tail call void (ptr, i32, ptr, ...) @av_log(ptr noundef nonnull %0, i32 noundef 16, ptr noundef nonnull @.str.45) #9
  br label %.thread

28:                                               ; preds = %31
  %indvars.iv.next = add nuw nsw i64 %indvars.iv, 1
  %29 = load i32, ptr %19, align 8, !tbaa !20
  %30 = zext i32 %29 to i64
  %.not31 = icmp samesign ult i64 %indvars.iv.next, %30
  br i1 %.not31, label %31, label %.loopexit, !llvm.loop !139

31:                                               ; preds = %.lr.ph, %28
  %indvars.iv = phi i64 [ 0, %.lr.ph ], [ %indvars.iv.next, %28 ]
  %32 = load ptr, ptr %26, align 8, !tbaa !35
  %33 = getelementptr inbounds nuw %struct.SchMux, ptr %32, i64 %indvars.iv
  %34 = tail call fastcc i32 @mux_task_start(ptr noundef %33)
  %35 = icmp slt i32 %34, 0
  br i1 %35, label %.thread, label %28

36:                                               ; preds = %15
  %37 = tail call fastcc i32 @mux_task_start(ptr noundef nonnull %1)
  %38 = icmp slt i32 %37, 0
  br i1 %38, label %.thread, label %.loopexit

.loopexit:                                        ; preds = %28, %.preheader, %36
  br label %.thread

.thread:                                          ; preds = %31, %36, %18, %2, %.loopexit, %27
  %.025 = phi i32 [ %23, %27 ], [ 0, %.loopexit ], [ %7, %2 ], [ 0, %18 ], [ %37, %36 ], [ %34, %31 ]
  ret i32 %.025
}